; ModuleID = '29/150.c'
source_filename = "29/150.c"
target datalayout = "e-m:e-p270:32:32-p271:32:32-p272:64:64-i64:64-f80:128-n8:16:32:64-S128"
target triple = "x86_64-pc-linux-gnu"

@.str = private unnamed_addr constant [3 x i8] c"%d\00", align 1
@.str.1 = private unnamed_addr constant [6 x i8] c"%.3f\0A\00", align 1

; Function Attrs: noinline nounwind uwtable
define dso_local i32 @main() #0 {
  %1 = alloca i32, align 4
  %2 = alloca i32, align 4
  %3 = alloca i32, align 4
  %4 = alloca i32, align 4
  %5 = alloca i32, align 4
  %6 = alloca i32, align 4
  %7 = alloca i32, align 4
  %8 = alloca float, align 4
  %9 = alloca [100 x i32], align 16
  store i32 0, i32* %1, align 4
  store i32 2, i32* %5, align 4
  store i32 1, i32* %6, align 4
  %10 = call i32 (i8*, ...) @__isoc99_scanf(i8* getelementptr inbounds ([3 x i8], [3 x i8]* @.str, i64 0, i64 0), i32* %2)
  store i32 0, i32* %3, align 4
  br label %11

11:                                               ; preds = %50, %0
  %12 = load i32, i32* %3, align 4
  %13 = load i32, i32* %2, align 4
  %14 = icmp slt i32 %12, %13
  br i1 %14, label %15, label %53

15:                                               ; preds = %11
  store float 0.000000e+00, float* %8, align 4
  store i32 2, i32* %5, align 4
  store i32 1, i32* %6, align 4
  %16 = load i32, i32* %3, align 4
  %17 = sext i32 %16 to i64
  %18 = getelementptr inbounds [100 x i32], [100 x i32]* %9, i64 0, i64 %17
  %19 = call i32 (i8*, ...) @__isoc99_scanf(i8* getelementptr inbounds ([3 x i8], [3 x i8]* @.str, i64 0, i64 0), i32* %18)
  store i32 0, i32* %4, align 4
  br label %20

20:                                               ; preds = %43, %15
  %21 = load i32, i32* %4, align 4
  %22 = load i32, i32* %3, align 4
  %23 = sext i32 %22 to i64
  %24 = getelementptr inbounds [100 x i32], [100 x i32]* %9, i64 0, i64 %23
  %25 = load i32, i32* %24, align 4
  %26 = icmp slt i32 %21, %25
  br i1 %26, label %27, label %46

27:                                               ; preds = %20
  %28 = load float, float* %8, align 4
  %29 = fpext float %28 to double
  %30 = load i32, i32* %5, align 4
  %31 = sitofp i32 %30 to double
  %32 = fmul double 1.000000e+00, %31
  %33 = load i32, i32* %6, align 4
  %34 = sitofp i32 %33 to double
  %35 = fdiv double %32, %34
  %36 = fadd double %29, %35
  %37 = fptrunc double %36 to float
  store float %37, float* %8, align 4
  %38 = load i32, i32* %5, align 4
  %39 = load i32, i32* %6, align 4
  %40 = add nsw i32 %38, %39
  store i32 %40, i32* %7, align 4
  %41 = load i32, i32* %5, align 4
  store i32 %41, i32* %6, align 4
  %42 = load i32, i32* %7, align 4
  store i32 %42, i32* %5, align 4
  br label %43

43:                                               ; preds = %27
  %44 = load i32, i32* %4, align 4
  %45 = add nsw i32 %44, 1
  store i32 %45, i32* %4, align 4
  br label %20

46:                                               ; preds = %20
  %47 = load float, float* %8, align 4
  %48 = fpext float %47 to double
  %49 = call i32 (i8*, ...) @printf(i8* getelementptr inbounds ([6 x i8], [6 x i8]* @.str.1, i64 0, i64 0), double %48)
  br label %50

50:                                               ; preds = %46
  %51 = load i32, i32* %3, align 4
  %52 = add nsw i32 %51, 1
  store i32 %52, i32* %3, align 4
  br label %11

53:                                               ; preds = %11
  ret i32 0
}

declare dso_local i32 @__isoc99_scanf(i8*, ...) #1

declare dso_local i32 @printf(i8*, ...) #1


!llvm.module.flags = !{!0}
!llvm.ident = !{!1}

!0 = !{i32 1, !"wchar_size", i32 4}
!1 = !{!"clang version 10.0.0-4ubuntu1 "}
